; ModuleID = '17/1277.c'
source_filename = "17/1277.c"
target datalayout = "e-m:e-p270:32:32-p271:32:32-p272:64:64-i64:64-f80:128-n8:16:32:64-S128"
target triple = "x86_64-pc-linux-gnu"

@.str = private unnamed_addr constant [4 x i8] c"%s\0A\00", align 1

; Function Attrs: noinline nounwind uwtable
define dso_local i32 @main() #0 {
  %1 = alloca i32, align 4
  %2 = alloca [105 x i8], align 16
  %3 = alloca i32, align 4
  %4 = alloca i32, align 4
  store i32 0, i32* %1, align 4
  br label %5

5:                                                ; preds = %76, %0
  %6 = getelementptr inbounds [105 x i8], [105 x i8]* %2, i64 0, i64 0
  %7 = call i32 (i8*, ...) bitcast (i32 (...)* @gets to i32 (i8*, ...)*)(i8* %6)
  %8 = sext i32 %7 to i64
  %9 = inttoptr i64 %8 to i8*
  %10 = icmp ne i8* %9, null
  br i1 %10, label %11, label %79

11:                                               ; preds = %5
  %12 = getelementptr inbounds [105 x i8], [105 x i8]* %2, i64 0, i64 0
  %13 = call i32 (i8*, ...) @printf(i8* getelementptr inbounds ([4 x i8], [4 x i8]* @.str, i64 0, i64 0), i8* %12)
  store i32 0, i32* %3, align 4
  br label %14

14:                                               ; preds = %73, %11
  %15 = load i32, i32* %3, align 4
  %16 = sext i32 %15 to i64
  %17 = getelementptr inbounds [105 x i8], [105 x i8]* %2, i64 0, i64 %16
  %18 = load i8, i8* %17, align 1
  %19 = sext i8 %18 to i32
  %20 = icmp ne i32 %19, 0
  br i1 %20, label %21, label %76

21:                                               ; preds = %14
  %22 = load i32, i32* %3, align 4
  %23 = sext i32 %22 to i64
  %24 = getelementptr inbounds [105 x i8], [105 x i8]* %2, i64 0, i64 %23
  %25 = load i8, i8* %24, align 1
  %26 = sext i8 %25 to i32
  %27 = icmp eq i32 %26, 40
  br i1 %27, label %28, label %32

28:                                               ; preds = %21
  %29 = load i32, i32* %3, align 4
  %30 = sext i32 %29 to i64
  %31 = getelementptr inbounds [105 x i8], [105 x i8]* %2, i64 0, i64 %30
  store i8 36, i8* %31, align 1
  br label %72

32:                                               ; preds = %21
  %33 = load i32, i32* %3, align 4
  %34 = sext i32 %33 to i64
  %35 = getelementptr inbounds [105 x i8], [105 x i8]* %2, i64 0, i64 %34
  %36 = load i8, i8* %35, align 1
  %37 = sext i8 %36 to i32
  %38 = icmp eq i32 %37, 41
  br i1 %38, label %39, label %67

39:                                               ; preds = %32
  %40 = load i32, i32* %3, align 4
  %41 = sext i32 %40 to i64
  %42 = getelementptr inbounds [105 x i8], [105 x i8]* %2, i64 0, i64 %41
  store i8 63, i8* %42, align 1
  %43 = load i32, i32* %3, align 4
  %44 = sub nsw i32 %43, 1
  store i32 %44, i32* %4, align 4
  br label %45

45:                                               ; preds = %63, %39
  %46 = load i32, i32* %4, align 4
  %47 = icmp sge i32 %46, 0
  br i1 %47, label %48, label %66

48:                                               ; preds = %45
  %49 = load i32, i32* %4, align 4
  %50 = sext i32 %49 to i64
  %51 = getelementptr inbounds [105 x i8], [105 x i8]* %2, i64 0, i64 %50
  %52 = load i8, i8* %51, align 1
  %53 = sext i8 %52 to i32
  %54 = icmp eq i32 %53, 36
  br i1 %54, label %55, label %62

55:                                               ; preds = %48
  %56 = load i32, i32* %4, align 4
  %57 = sext i32 %56 to i64
  %58 = getelementptr inbounds [105 x i8], [105 x i8]* %2, i64 0, i64 %57
  store i8 32, i8* %58, align 1
  %59 = load i32, i32* %3, align 4
  %60 = sext i32 %59 to i64
  %61 = getelementptr inbounds [105 x i8], [105 x i8]* %2, i64 0, i64 %60
  store i8 32, i8* %61, align 1
  br label %66

62:                                               ; preds = %48
  br label %63

63:                                               ; preds = %62
  %64 = load i32, i32* %4, align 4
  %65 = add nsw i32 %64, -1
  store i32 %65, i32* %4, align 4
  br label %45

66:                                               ; preds = %55, %45
  br label %71

67:                                               ; preds = %32
  %68 = load i32, i32* %3, align 4
  %69 = sext i32 %68 to i64
  %70 = getelementptr inbounds [105 x i8], [105 x i8]* %2, i64 0, i64 %69
  store i8 32, i8* %70, align 1
  br label %71

71:                                               ; preds = %67, %66
  br label %72

72:                                               ; preds = %71, %28
  br label %73

73:                                               ; preds = %72
  %74 = load i32, i32* %3, align 4
  %75 = add nsw i32 %74, 1
  store i32 %75, i32* %3, align 4
  br label %14

76:                                               ; preds = %14
  %77 = getelementptr inbounds [105 x i8], [105 x i8]* %2, i64 0, i64 0
  %78 = call i32 (i8*, ...) @printf(i8* getelementptr inbounds ([4 x i8], [4 x i8]* @.str, i64 0, i64 0), i8* %77)
  br label %5

79:                                               ; preds = %5
  %80 = load i32, i32* %1, align 4
  ret i32 %80
}

declare dso_local i32 @gets(...) #1

declare dso_local i32 @printf(i8*, ...) #1


!llvm.module.flags = !{!0}
!llvm.ident = !{!1}

!0 = !{i32 1, !"wchar_size", i32 4}
!1 = !{!"clang version 10.0.0-4ubuntu1 "}
